; Function Attrs: mustprogress nofree norecurse nounwind willreturn uwtable
define noundef ptr @_ZNK4base25PersistentMemoryAllocator8GetBlockEjjjbb(ptr noundef nonnull readonly align 8 captures(none) dereferenceable(48) %0, i32 noundef %1, i32 noundef %2, i32 noundef %3, i1 noundef zeroext %4, i1 noundef zeroext %5) local_unnamed_addr #1 align 2 {
  %7 = and i32 %1, 7
  %.not = icmp eq i32 %7, 0
  br i1 %.not, label %8, label %.thread

8:                                                ; preds = %6
  %9 = zext i32 %1 to i64
  %10 = select i1 %4, i64 40, i64 56
  %11 = icmp samesign ugt i64 %10, %9
  br i1 %11, label %.thread, label %12

12:                                               ; preds = %8
  %13 = add i32 %3, 16
  %14 = add i32 %13, %1
  %15 = getelementptr inbounds nuw i8, ptr %0, i64 16
  %16 = load i32, ptr %15, align 8, !tbaa !13
  %17 = icmp ugt i32 %14, %16
  br i1 %17, label %.thread, label %18

18:                                               ; preds = %12
  %.phi.trans.insert = getelementptr inbounds nuw i8, ptr %0, i64 8
  %.pre = load ptr, ptr %.phi.trans.insert, align 8, !tbaa !20
  br i1 %5, label %._crit_edge, label %19

19:                                               ; preds = %18
  %20 = getelementptr inbounds nuw i8, ptr %.pre, i64 32
  %21 = load atomic volatile i32, ptr %20 monotonic, align 4
  %.sroa.speculated = tail call i32 @llvm.umin.i32(i32 %16, i32 %21)
  %22 = icmp ugt i32 %14, %.sroa.speculated
  br i1 %22, label %.thread, label %23

23:                                               ; preds = %19
  %24 = getelementptr inbounds nuw i8, ptr %.pre, i64 %9
  %25 = load volatile i32, ptr %24, align 4, !tbaa !21
  %26 = icmp ult i32 %25, %13
  br i1 %26, label %.thread, label %27

27:                                               ; preds = %23
  %28 = load volatile i32, ptr %24, align 4, !tbaa !21
  %29 = add i32 %28, %1
  %30 = icmp ugt i32 %29, %.sroa.speculated
  br i1 %30, label %.thread, label %31

31:                                               ; preds = %27
  %.not30 = icmp eq i32 %1, 40
  br i1 %.not30, label %35, label %32

32:                                               ; preds = %31
  %33 = getelementptr inbounds nuw i8, ptr %24, i64 4
  %34 = load volatile i32, ptr %33, align 4, !tbaa !23
  %.not31 = icmp eq i32 %34, -931556759
  br i1 %.not31, label %35, label %.thread

35:                                               ; preds = %32, %31
  %.not32 = icmp eq i32 %2, 0
  br i1 %.not32, label %._crit_edge, label %36

36:                                               ; preds = %35
  %37 = getelementptr inbounds nuw i8, ptr %24, i64 8
  %38 = load atomic volatile i32, ptr %37 monotonic, align 4
  %.not33 = icmp eq i32 %38, %2
  br i1 %.not33, label %._crit_edge, label %.thread

._crit_edge:                                      ; preds = %18, %36, %35
  %39 = getelementptr inbounds nuw i8, ptr %.pre, i64 %9
  br label %.thread

.thread:                                          ; preds = %36, %32, %27, %23, %19, %12, %8, %6, %._crit_edge
  %.0 = phi ptr [ %39, %._crit_edge ], [ null, %6 ], [ null, %8 ], [ null, %12 ], [ null, %19 ], [ null, %23 ], [ null, %27 ], [ null, %32 ], [ null, %36 ]
  ret ptr %.0
}